; Function Attrs: mustprogress nofree norecurse nosync nounwind willreturn memory(readwrite, inaccessiblemem: none) uwtable
define void @_ZN5ImGui15TableSetBgColorEiji(i32 noundef %0, i32 noundef %1, i32 noundef %2) local_unnamed_addr #14 {
  %4 = load ptr, ptr @GImGui, align 8, !tbaa !3
  %5 = getelementptr inbounds nuw i8, ptr %4, i64 8640
  %6 = load ptr, ptr %5, align 8, !tbaa !266
  %7 = icmp eq i32 %1, 16777216
  %spec.store.select = select i1 %7, i32 0, i32 %1
  switch i32 %0, label %56 [
    i32 3, label %8
    i32 1, label %45
    i32 2, label %45
  ]

8:                                                ; preds = %3
  %9 = getelementptr inbounds nuw i8, ptr %6, i64 124
  %10 = load float, ptr %9, align 4, !tbaa !255
  %11 = getelementptr inbounds nuw i8, ptr %6, i64 300
  %12 = load float, ptr %11, align 4, !tbaa !253
  %13 = fcmp ogt float %10, %12
  br i1 %13, label %56, label %14

14:                                               ; preds = %8
  %15 = icmp eq i32 %2, -1
  br i1 %15, label %16, label %19

16:                                               ; preds = %14
  %17 = getelementptr inbounds nuw i8, ptr %6, i64 116
  %18 = load i32, ptr %17, align 4, !tbaa !249
  br label %19

19:                                               ; preds = %16, %14
  %.0 = phi i32 [ %18, %16 ], [ %2, %14 ]
  %20 = getelementptr inbounds nuw i8, ptr %6, i64 88
  %21 = load ptr, ptr %20, align 8, !tbaa !288
  %22 = ashr i32 %.0, 5
  %23 = sext i32 %22 to i64
  %24 = getelementptr inbounds i32, ptr %21, i64 %23
  %25 = load i32, ptr %24, align 4, !tbaa !280
  %26 = and i32 %.0, 31
  %27 = shl nuw i32 1, %26
  %28 = and i32 %25, %27
  %.not = icmp eq i32 %28, 0
  br i1 %.not, label %56, label %29

29:                                               ; preds = %19
  %30 = getelementptr inbounds nuw i8, ptr %6, i64 558
  %31 = load i16, ptr %30, align 2, !tbaa !495
  %32 = icmp slt i16 %31, 0
  %.phi.trans.insert.phi.trans.insert = getelementptr inbounds nuw i8, ptr %6, i64 56
  %.pre.pre = load ptr, ptr %.phi.trans.insert.phi.trans.insert, align 8, !tbaa !284
  br i1 %32, label %._crit_edge, label %33

33:                                               ; preds = %29
  %34 = zext nneg i16 %31 to i64
  %35 = getelementptr inbounds nuw %struct.ImGuiTableCellData, ptr %.pre.pre, i64 %34, i32 1
  %36 = load i16, ptr %35, align 4, !tbaa !496
  %37 = sext i16 %36 to i32
  %.not28 = icmp eq i32 %.0, %37
  br i1 %.not28, label %39, label %._crit_edge

._crit_edge:                                      ; preds = %29, %33
  %38 = add i16 %31, 1
  store i16 %38, ptr %30, align 2, !tbaa !495
  br label %39

39:                                               ; preds = %._crit_edge, %33
  %40 = phi i16 [ %38, %._crit_edge ], [ %31, %33 ]
  %41 = sext i16 %40 to i64
  %42 = getelementptr inbounds %struct.ImGuiTableCellData, ptr %.pre.pre, i64 %41
  store i32 %spec.store.select, ptr %42, align 4, !tbaa !499
  %43 = trunc i32 %.0 to i16
  %44 = getelementptr inbounds nuw i8, ptr %42, i64 4
  store i16 %43, ptr %44, align 4, !tbaa !496
  br label %56

45:                                               ; preds = %3, %3
  %46 = getelementptr inbounds nuw i8, ptr %6, i64 124
  %47 = load float, ptr %46, align 4, !tbaa !255
  %48 = getelementptr inbounds nuw i8, ptr %6, i64 300
  %49 = load float, ptr %48, align 4, !tbaa !253
  %50 = fcmp ogt float %47, %49
  br i1 %50, label %56, label %51

51:                                               ; preds = %45
  %52 = icmp eq i32 %0, 2
  %53 = getelementptr inbounds nuw i8, ptr %6, i64 156
  %54 = zext i1 %52 to i64
  %55 = getelementptr inbounds nuw [2 x i32], ptr %53, i64 0, i64 %54
  store i32 %spec.store.select, ptr %55, align 4, !tbaa !280
  br label %56

56:                                               ; preds = %39, %51, %3, %45, %19, %8
  ret void
}